#include <math.h>
#include <stdio.h>
#include <stdlib.h>
#include <string.h>

int main()
{ 
   int i,j,n,m,k,N=0;
   scanf("%d%d",&n,&m);
   int a[100][100];
   for(i=0;i<n;i++){
   for(j=0;j<m;j++){
   scanf("%d",&a[i][j]);
      }
    }
   for(k=0;;k++){
   for(j=k;j<=m-1-k;j++){
   printf("%d\n",a[k][j]);
   N++;
       }
   printf("\n");
   if(N==n*m)break;
   for(i=k+1;i<=n-1-k;i++){
   printf("%d\n",a[i][m-1-k]);
   N++;
       }
   printf("\n");
   if(N==n*m)break;
   for(j=m-2-k;j>=k;j--){
   printf("%d\n",a[n-1-k][j]);
   N++;
       }
   printf("\n");
   if(N==n*m)break;
   for(i=n-2-k;i>=k+1;i--){
   printf("%d\n",a[i][k]);
   N++;
       }
   printf("\n");
   if(N==n*m)
   break;
   }
   return 0;
}

